; Function Attrs: mustprogress uwtable
define void @_ZNK5faiss23IndexIVFScalarQuantizer9sa_decodeElPKhPf(ptr noundef nonnull align 8 dereferenceable(336) %0, i64 noundef %1, ptr noundef %2, ptr noundef %3) unnamed_addr #1 align 2 personality ptr @__gxx_personality_v0 {
  %5 = alloca i64, align 8
  %6 = alloca ptr, align 8
  %7 = alloca ptr, align 8
  %8 = alloca %"class.std::unique_ptr.20", align 8
  %9 = alloca i64, align 8
  %10 = alloca i32, align 4
  %11 = tail call i32 @__kmpc_global_thread_num(ptr nonnull @3)
  store i64 %1, ptr %5, align 8
  store ptr %2, ptr %6, align 8
  store ptr %3, ptr %7, align 8
  %12 = getelementptr inbounds i8, ptr %0, i64 264
  %13 = tail call noundef ptr @_ZNK5faiss15ScalarQuantizer16select_quantizerEv(ptr noundef nonnull align 8 dereferenceable(72) %12)
  store ptr %13, ptr %8, align 8
  %14 = getelementptr inbounds i8, ptr %0, i64 48
  %15 = invoke noundef i64 @_ZNK5faiss15Level1Quantizer16coarse_code_sizeEv(ptr noundef nonnull align 8 dereferenceable(72) %14)
          to label %16 unwind label %19

16:                                               ; preds = %4
  store i64 %15, ptr %9, align 8
  %17 = icmp sgt i64 %1, 1000
  br i1 %17, label %18, label %24

18:                                               ; preds = %16
  call void (ptr, i32, ptr, ...) @__kmpc_fork_call(ptr nonnull @3, i32 6, ptr nonnull @_ZNK5faiss23IndexIVFScalarQuantizer9sa_decodeElPKhPf.omp_outlined, ptr nonnull %0, ptr nonnull %5, ptr nonnull %6, ptr nonnull %9, ptr nonnull %7, ptr nonnull %8)
  %.pre = load ptr, ptr %8, align 8
  br label %25

19:                                               ; preds = %4
  %20 = landingpad { ptr, i32 }
          cleanup
  %.not.i = icmp eq ptr %13, null
  br i1 %.not.i, label %_ZNSt10unique_ptrIN5faiss15ScalarQuantizer10SQuantizerESt14default_deleteIS2_EED2Ev.exit, label %_ZNKSt14default_deleteIN5faiss15ScalarQuantizer10SQuantizerEEclEPS2_.exit.i

_ZNKSt14default_deleteIN5faiss15ScalarQuantizer10SQuantizerEEclEPS2_.exit.i: ; preds = %19
  %21 = load ptr, ptr %13, align 8
  %22 = getelementptr inbounds i8, ptr %21, i64 24
  %23 = load ptr, ptr %22, align 8
  tail call void %23(ptr noundef nonnull align 8 dereferenceable(8) %13) #10
  br label %_ZNSt10unique_ptrIN5faiss15ScalarQuantizer10SQuantizerESt14default_deleteIS2_EED2Ev.exit

_ZNSt10unique_ptrIN5faiss15ScalarQuantizer10SQuantizerESt14default_deleteIS2_EED2Ev.exit: ; preds = %19, %_ZNKSt14default_deleteIN5faiss15ScalarQuantizer10SQuantizerEEclEPS2_.exit.i
  resume { ptr, i32 } %20

24:                                               ; preds = %16
  tail call void @__kmpc_serialized_parallel(ptr nonnull @3, i32 %11)
  store i32 %11, ptr %10, align 4
  call void @_ZNK5faiss23IndexIVFScalarQuantizer9sa_decodeElPKhPf.omp_outlined(ptr nonnull %10, ptr nonnull poison, ptr nonnull %0, ptr %5, ptr %6, ptr %9, ptr %7, ptr %8) #10
  tail call void @__kmpc_end_serialized_parallel(ptr nonnull @3, i32 %11)
  br label %25

25:                                               ; preds = %24, %18
  %26 = phi ptr [ %13, %24 ], [ %.pre, %18 ]
  %.not.i2 = icmp eq ptr %26, null
  br i1 %.not.i2, label %_ZNSt10unique_ptrIN5faiss15ScalarQuantizer10SQuantizerESt14default_deleteIS2_EED2Ev.exit4, label %_ZNKSt14default_deleteIN5faiss15ScalarQuantizer10SQuantizerEEclEPS2_.exit.i3

_ZNKSt14default_deleteIN5faiss15ScalarQuantizer10SQuantizerEEclEPS2_.exit.i3: ; preds = %25
  %27 = load ptr, ptr %26, align 8
  %28 = getelementptr inbounds i8, ptr %27, i64 24
  %29 = load ptr, ptr %28, align 8
  call void %29(ptr noundef nonnull align 8 dereferenceable(8) %26) #10
  br label %_ZNSt10unique_ptrIN5faiss15ScalarQuantizer10SQuantizerESt14default_deleteIS2_EED2Ev.exit4

_ZNSt10unique_ptrIN5faiss15ScalarQuantizer10SQuantizerESt14default_deleteIS2_EED2Ev.exit4: ; preds = %25, %_ZNKSt14default_deleteIN5faiss15ScalarQuantizer10SQuantizerEEclEPS2_.exit.i3
  ret void
}